target datalayout = "e-m:e-p270:32:32-p271:32:32-p272:64:64-i64:64-i128:128-f80:128-n8:16:32:64-S128"
target triple = "x86_64-pc-linux-gnu"

%struct.BEValue = type { i8, i32, ptr, ptr, ptr }
%struct.GenContext_ = type { i8, ptr, ptr, ptr, ptr, ptr, ptr, ptr, ptr, ptr, ptr, ptr, ptr, ptr, ptr, ptr, ptr, ptr, ptr, ptr, ptr, ptr, ptr, ptr, ptr, ptr, ptr, ptr, ptr, ptr, ptr, ptr, ptr, %struct.anon.85, i32, i32, %struct.DebugContext, ptr, ptr, ptr, %struct.BEValue, i8, %union.SourceSpan, ptr, ptr, ptr, ptr }
%struct.anon.85 = type { ptr, ptr, ptr }
%struct.DebugContext = type { i16, ptr, ptr, %struct.DebugFile_, ptr, ptr, ptr, ptr }
%struct.DebugFile_ = type { i16, ptr }
%union.SourceSpan = type { i64 }

@.str.3 = private unnamed_addr constant [1 x i8] zeroinitializer, align 1

; Function Attrs: nounwind uwtable
define internal ptr @llvm_mask_low_bits(ptr noundef %0, ptr noundef %1, i32 noundef %2) #0 {
  %4 = alloca ptr, align 8
  %5 = alloca ptr, align 8
  %6 = alloca ptr, align 8
  %7 = alloca ptr, align 8
  %8 = alloca ptr, align 8
  %9 = alloca ptr, align 8
  %10 = alloca ptr, align 8
  %11 = alloca ptr, align 8
  %12 = alloca ptr, align 8
  %13 = alloca ptr, align 8
  %14 = alloca ptr, align 8
  %15 = alloca i32, align 4
  %16 = alloca ptr, align 8
  %17 = alloca i64, align 8
  %18 = alloca ptr, align 8
  store ptr %0, ptr %13, align 8
  store ptr %1, ptr %14, align 8
  store i32 %2, ptr %15, align 4
  %19 = load ptr, ptr %14, align 8
  %20 = call ptr @LLVMTypeOf(ptr noundef %19)
  store ptr %20, ptr %16, align 8
  %21 = load i32, ptr %15, align 4
  %22 = icmp ult i32 %21, 1
  br i1 %22, label %23, label %27

23:                                               ; preds = %3
  %24 = load ptr, ptr %16, align 8
  store ptr %24, ptr %11, align 8
  %25 = load ptr, ptr %11, align 8
  %26 = call ptr @LLVMConstNull(ptr noundef %25) #8
  store ptr %26, ptr %12, align 8
  br label %73

27:                                               ; preds = %3
  %28 = load ptr, ptr %13, align 8
  %29 = load ptr, ptr %16, align 8
  %30 = call i64 @llvm_bitsize(ptr noundef %28, ptr noundef %29)
  store i64 %30, ptr %17, align 8
  %31 = load i64, ptr %17, align 8
  %32 = load i32, ptr %15, align 4
  %33 = zext i32 %32 to i64
  %34 = icmp ule i64 %31, %33
  br i1 %34, label %35, label %37

35:                                               ; preds = %27
  %36 = load ptr, ptr %14, align 8
  store ptr %36, ptr %12, align 8
  br label %73

37:                                               ; preds = %27
  %38 = load ptr, ptr %13, align 8
  %39 = load ptr, ptr %16, align 8
  store ptr %39, ptr %10, align 8
  %40 = load ptr, ptr %10, align 8
  %41 = call ptr @LLVMConstAllOnes(ptr noundef %40) #8
  %42 = load i64, ptr %17, align 8
  %43 = load i32, ptr %15, align 4
  %44 = zext i32 %43 to i64
  %45 = sub i64 %42, %44
  %46 = trunc i64 %45 to i32
  %47 = call ptr @llvm_emit_lshr_fixed(ptr noundef %38, ptr noundef %41, i32 noundef %46)
  store ptr %47, ptr %18, align 8
  %48 = load ptr, ptr %13, align 8
  %49 = load ptr, ptr %18, align 8
  %50 = load ptr, ptr %14, align 8
  store ptr %48, ptr %7, align 8
  store ptr %49, ptr %8, align 8
  store ptr %50, ptr %9, align 8
  %51 = load ptr, ptr %8, align 8
  store ptr %51, ptr %4, align 8
  %52 = load ptr, ptr %4, align 8
  %53 = call i32 @LLVMIsNull(ptr noundef %52) #8
  %54 = icmp ne i32 %53, 0
  br i1 %54, label %55, label %57

55:                                               ; preds = %37
  %56 = load ptr, ptr %8, align 8
  store ptr %56, ptr %6, align 8
  br label %71

57:                                               ; preds = %37
  %58 = load ptr, ptr %9, align 8
  store ptr %58, ptr %5, align 8
  %59 = load ptr, ptr %5, align 8
  %60 = call i32 @LLVMIsNull(ptr noundef %59) #8
  %61 = icmp ne i32 %60, 0
  br i1 %61, label %62, label %64

62:                                               ; preds = %57
  %63 = load ptr, ptr %9, align 8
  store ptr %63, ptr %6, align 8
  br label %71

64:                                               ; preds = %57
  %65 = load ptr, ptr %7, align 8
  %66 = getelementptr inbounds %struct.GenContext_, ptr %65, i32 0, i32 8
  %67 = load ptr, ptr %66, align 8
  %68 = load ptr, ptr %8, align 8
  %69 = load ptr, ptr %9, align 8
  %70 = call ptr @LLVMBuildAnd(ptr noundef %67, ptr noundef %68, ptr noundef %69, ptr noundef @.str.3) #8
  store ptr %70, ptr %6, align 8
  br label %71

71:                                               ; preds = %64, %62, %55
  %72 = load ptr, ptr %6, align 8
  store ptr %72, ptr %12, align 8
  br label %73

73:                                               ; preds = %71, %35, %23
  %74 = load ptr, ptr %12, align 8
  ret ptr %74
}