; Function Attrs: nounwind uwtable
define internal fastcc ptr @llvm_mask_low_bits(ptr noundef %0, ptr noundef %1, i32 noundef %2) unnamed_addr #0 {
  %4 = tail call ptr @LLVMTypeOf(ptr noundef %1) #10
  %5 = icmp eq i32 %2, 0
  br i1 %5, label %6, label %8

6:                                                ; preds = %3
  %7 = tail call ptr @LLVMConstNull(ptr noundef %4) #10
  br label %23

8:                                                ; preds = %3
  %9 = tail call i64 @llvm_bitsize(ptr noundef %0, ptr noundef %4) #10
  %10 = zext i32 %2 to i64
  %.not = icmp ugt i64 %9, %10
  br i1 %.not, label %11, label %23

11:                                               ; preds = %8
  %12 = tail call ptr @LLVMConstAllOnes(ptr noundef %4) #10
  %13 = trunc i64 %9 to i32
  %14 = sub i32 %13, %2
  %15 = tail call ptr @llvm_emit_lshr_fixed(ptr noundef %0, ptr noundef %12, i32 noundef %14) #10
  %16 = tail call i32 @LLVMIsNull(ptr noundef %15) #10
  %.not31 = icmp eq i32 %16, 0
  br i1 %.not31, label %17, label %23

17:                                               ; preds = %11
  %18 = tail call i32 @LLVMIsNull(ptr noundef %1) #10
  %.not32 = icmp eq i32 %18, 0
  br i1 %.not32, label %19, label %23

19:                                               ; preds = %17
  %20 = getelementptr inbounds i8, ptr %0, i64 64
  %21 = load ptr, ptr %20, align 8
  %22 = tail call ptr @LLVMBuildAnd(ptr noundef %21, ptr noundef %15, ptr noundef %1, ptr noundef nonnull @.str.3) #10
  br label %23

23:                                               ; preds = %19, %11, %17, %8, %6
  %.027 = phi ptr [ %7, %6 ], [ %1, %8 ], [ %22, %19 ], [ %15, %11 ], [ %1, %17 ]
  ret ptr %.027
}